ccopy_reg
_reconstructor
p0
(cgoogle.oauth2.credentials
Credentials
p1
c__builtin__
object
p2
Ntp3
Rp4
(dp5
S'_token_uri'
p6
Vhttps://oauth2.googleapis.com/token
p7
sS'_client_secret'
p8
Vl95ysEpVlBM6UWMepEg9oe2W
p9
sS'_id_token'
p10
NsS'token'
p11
Vya29.GlsuBz6hfNBF-LYtzZELlYDlwh0TwbFNSCa3uA-as24ljqoXzcVGfND7MCuwKXfUloXFk7hZQ-kxpl3AjW8hz3EqlAtGIzaPCagRYh_aot3kZupcSbqlFxR4TWPj
p12
sS'_refresh_token'
p13
V1/D2M-CfzoEC1E3npakXFSkLDVMusXPmETTx6xgJS84q4
p14
sS'_scopes'
p15
(lp16
S'https://www.googleapis.com/auth/drive'
p17
asS'_client_id'
p18
V1024007529863-636iprhflvfekuhk27jh17plk81q546u.apps.googleusercontent.com
p19
sS'expiry'
p20
cdatetime
datetime
p21
(S'\x07\xe3\x06\x15\x10\x0c4\x01.V'
p22
tp23
Rp24
sb.